target datalayout = "e-m:e-p270:32:32-p271:32:32-p272:64:64-i64:64-i128:128-f80:128-n8:16:32:64-S128"
target triple = "x86_64-pc-linux-gnu"

%struct.Gia_Man_t_ = type { ptr, ptr, i32, i32, i32, i32, ptr, ptr, i32, i32, i32, ptr, ptr, %struct.Vec_Int_t_, %struct.Vec_Int_t_, i32, i32, i32, %struct.Vec_Int_t_, ptr, ptr, ptr, i32, i32, i32, i32, ptr, ptr, ptr, ptr, ptr, i32, i32, ptr, i32, ptr, ptr, ptr, ptr, ptr, ptr, ptr, ptr, ptr, ptr, ptr, ptr, ptr, ptr, ptr, ptr, ptr, ptr, %struct.Vec_Int_t_, %struct.Vec_Int_t_, ptr, ptr, ptr, ptr, ptr, ptr, ptr, ptr, ptr, ptr, ptr, ptr, ptr, ptr, ptr, ptr, ptr, ptr, ptr, ptr, ptr, i32, float, float, ptr, ptr, i32, ptr, ptr, ptr, ptr, ptr, ptr, ptr, ptr, ptr, ptr, ptr, ptr, ptr, ptr, ptr, i64, i64, ptr, ptr, i32, i32, i32, i32, i32, i32, i32, i32, i32, i32, i32, i32, ptr, ptr, ptr, ptr, ptr, ptr, ptr, ptr, i32, i32, i32, ptr, i32, i32, ptr, ptr, ptr, ptr, ptr, ptr, i32, i32, ptr, %struct.Vec_Int_t_, %struct.Vec_Int_t_, %struct.Vec_Int_t_, ptr, ptr, ptr, i32, i32, i32, i32, ptr, ptr, ptr, ptr, ptr }
%struct.Vec_Int_t_ = type { i32, i32, ptr }

@.str.6 = private unnamed_addr constant [13 x i8] c"Statistics: \00", align 1
@.str.7 = private unnamed_addr constant [8 x i8] c" -%d=%d\00", align 1
@.str.8 = private unnamed_addr constant [7 x i8] c" %d=%d\00", align 1
@.str.9 = private unnamed_addr constant [2 x i8] c"\0A\00", align 1

; Function Attrs: inlinehint nounwind uwtable
define internal i32 @Abc_MaxInt(i32 noundef %0, i32 noundef %1) #1 {
  %3 = alloca i32, align 4
  %4 = alloca i32, align 4
  store i32 %0, ptr %3, align 4, !tbaa !13
  store i32 %1, ptr %4, align 4, !tbaa !13
  %5 = load i32, ptr %3, align 4, !tbaa !13
  %6 = load i32, ptr %4, align 4, !tbaa !13
  %7 = icmp sgt i32 %5, %6
  br i1 %7, label %8, label %10

8:                                                ; preds = %2
  %9 = load i32, ptr %3, align 4, !tbaa !13
  br label %12

10:                                               ; preds = %2
  %11 = load i32, ptr %4, align 4, !tbaa !13
  br label %12

12:                                               ; preds = %10, %8
  %13 = phi i32 [ %9, %8 ], [ %11, %10 ]
  ret i32 %13
}

; Function Attrs: inlinehint nounwind uwtable
define internal i32 @Abc_MinInt(i32 noundef %0, i32 noundef %1) #1 {
  %3 = alloca i32, align 4
  %4 = alloca i32, align 4
  store i32 %0, ptr %3, align 4, !tbaa !13
  store i32 %1, ptr %4, align 4, !tbaa !13
  %5 = load i32, ptr %3, align 4, !tbaa !13
  %6 = load i32, ptr %4, align 4, !tbaa !13
  %7 = icmp slt i32 %5, %6
  br i1 %7, label %8, label %10

8:                                                ; preds = %2
  %9 = load i32, ptr %3, align 4, !tbaa !13
  br label %12

10:                                               ; preds = %2
  %11 = load i32, ptr %4, align 4, !tbaa !13
  br label %12

12:                                               ; preds = %10, %8
  %13 = phi i32 [ %9, %8 ], [ %11, %10 ]
  ret i32 %13
}

; Function Attrs: inlinehint nounwind uwtable
define internal i32 @Gia_ManSifTimeToCount(i32 noundef %0, i32 noundef %1) #1 {
  %3 = alloca i32, align 4
  %4 = alloca i32, align 4
  store i32 %0, ptr %3, align 4, !tbaa !13
  store i32 %1, ptr %4, align 4, !tbaa !13
  %5 = load i32, ptr %4, align 4, !tbaa !13
  %6 = mul nsw i32 %5, 65535
  %7 = load i32, ptr %3, align 4, !tbaa !13
  %8 = add nsw i32 %6, %7
  %9 = load i32, ptr %4, align 4, !tbaa !13
  %10 = sdiv i32 %8, %9
  %11 = load i32, ptr %4, align 4, !tbaa !13
  %12 = mul nsw i32 %11, 65535
  %13 = load i32, ptr %3, align 4, !tbaa !13
  %14 = add nsw i32 %12, %13
  %15 = load i32, ptr %4, align 4, !tbaa !13
  %16 = srem i32 %14, %15
  %17 = icmp ne i32 %16, 0
  %18 = zext i1 %17 to i32
  %19 = add nsw i32 %10, %18
  %20 = sub nsw i32 %19, 65536
  ret i32 %20
}

; Function Attrs: inlinehint nounwind uwtable
define internal i32 @Vec_IntEntry(ptr noundef %0, i32 noundef %1) #1 {
  %3 = alloca ptr, align 8
  %4 = alloca i32, align 4
  store ptr %0, ptr %3, align 8, !tbaa !33
  store i32 %1, ptr %4, align 4, !tbaa !13
  %5 = load ptr, ptr %3, align 8, !tbaa !33
  %6 = getelementptr inbounds nuw %struct.Vec_Int_t_, ptr %5, i32 0, i32 2
  %7 = load ptr, ptr %6, align 8, !tbaa !38
  %8 = load i32, ptr %4, align 4, !tbaa !13
  %9 = sext i32 %8 to i64
  %10 = getelementptr inbounds i32, ptr %7, i64 %9
  %11 = load i32, ptr %10, align 4, !tbaa !13
  ret i32 %11
}

; Function Attrs: inlinehint nounwind uwtable
define internal i32 @Gia_ObjIsLut(ptr noundef %0, i32 noundef %1) #1 {
  %3 = alloca ptr, align 8
  %4 = alloca i32, align 4
  store ptr %0, ptr %3, align 8, !tbaa !3
  store i32 %1, ptr %4, align 4, !tbaa !13
  %5 = load ptr, ptr %3, align 8, !tbaa !3
  %6 = getelementptr inbounds nuw %struct.Gia_Man_t_, ptr %5, i32 0, i32 37
  %7 = load ptr, ptr %6, align 8, !tbaa !37
  %8 = load i32, ptr %4, align 4, !tbaa !13
  %9 = call i32 @Vec_IntEntry(ptr noundef %7, i32 noundef %8)
  %10 = icmp ne i32 %9, 0
  %11 = zext i1 %10 to i32
  ret i32 %11
}

; Function Attrs: inlinehint nounwind uwtable
define internal i32 @Gia_ManObjNum(ptr noundef %0) #1 {
  %2 = alloca ptr, align 8
  store ptr %0, ptr %2, align 8, !tbaa !3
  %3 = load ptr, ptr %2, align 8, !tbaa !3
  %4 = getelementptr inbounds nuw %struct.Gia_Man_t_, ptr %3, i32 0, i32 4
  %5 = load i32, ptr %4, align 8, !tbaa !47
  ret i32 %5
}

; Function Attrs: nounwind uwtable
define void @Gia_ManSifPrintTimes(ptr noundef %0, ptr noundef %1, i32 noundef %2) #0 {
  %4 = alloca ptr, align 8
  %5 = alloca ptr, align 8
  %6 = alloca i32, align 4
  %7 = alloca i32, align 4
  %8 = alloca i32, align 4
  %9 = alloca [256 x i32], align 16
  %10 = alloca [256 x i32], align 16
  store ptr %0, ptr %4, align 8, !tbaa !3
  store ptr %1, ptr %5, align 8, !tbaa !33
  store i32 %2, ptr %6, align 4, !tbaa !13
  call void @llvm.lifetime.start.p0(i64 4, ptr %7) #11
  call void @llvm.lifetime.start.p0(i64 4, ptr %8) #11
  call void @llvm.lifetime.start.p0(i64 1024, ptr %9) #11
  call void @llvm.memset.p0.i64(ptr align 16 %9, i8 0, i64 1024, i1 false)
  call void @llvm.lifetime.start.p0(i64 1024, ptr %10) #11
  call void @llvm.memset.p0.i64(ptr align 16 %10, i8 0, i64 1024, i1 false)
  store i32 1, ptr %7, align 4, !tbaa !13
  br label %11

11:                                               ; preds = %49, %3
  %12 = load i32, ptr %7, align 4, !tbaa !13
  %13 = load ptr, ptr %4, align 8, !tbaa !3
  %14 = call i32 @Gia_ManObjNum(ptr noundef %13)
  %15 = icmp slt i32 %12, %14
  br i1 %15, label %16, label %52

16:                                               ; preds = %11
  %17 = load ptr, ptr %4, align 8, !tbaa !3
  %18 = load i32, ptr %7, align 4, !tbaa !13
  %19 = call i32 @Gia_ObjIsLut(ptr noundef %17, i32 noundef %18)
  %20 = icmp ne i32 %19, 0
  br i1 %20, label %22, label %21

21:                                               ; preds = %16
  br label %48

22:                                               ; preds = %16
  %23 = load ptr, ptr %5, align 8, !tbaa !33
  %24 = load i32, ptr %7, align 4, !tbaa !13
  %25 = call i32 @Vec_IntEntry(ptr noundef %23, i32 noundef %24)
  %26 = load i32, ptr %6, align 4, !tbaa !13
  %27 = call i32 @Gia_ManSifTimeToCount(i32 noundef %25, i32 noundef %26)
  store i32 %27, ptr %8, align 4, !tbaa !13
  %28 = load i32, ptr %8, align 4, !tbaa !13
  %29 = call i32 @Abc_MinInt(i32 noundef %28, i32 noundef 255)
  store i32 %29, ptr %8, align 4, !tbaa !13
  %30 = load i32, ptr %8, align 4, !tbaa !13
  %31 = call i32 @Abc_MaxInt(i32 noundef %30, i32 noundef -255)
  store i32 %31, ptr %8, align 4, !tbaa !13
  %32 = load i32, ptr %8, align 4, !tbaa !13
  %33 = icmp sge i32 %32, 0
  br i1 %33, label %34, label %40

34:                                               ; preds = %22
  %35 = load i32, ptr %8, align 4, !tbaa !13
  %36 = sext i32 %35 to i64
  %37 = getelementptr inbounds [256 x i32], ptr %9, i64 0, i64 %36
  %38 = load i32, ptr %37, align 4, !tbaa !13
  %39 = add nsw i32 %38, 1
  store i32 %39, ptr %37, align 4, !tbaa !13
  br label %47

40:                                               ; preds = %22
  %41 = load i32, ptr %8, align 4, !tbaa !13
  %42 = sub nsw i32 0, %41
  %43 = sext i32 %42 to i64
  %44 = getelementptr inbounds [256 x i32], ptr %10, i64 0, i64 %43
  %45 = load i32, ptr %44, align 4, !tbaa !13
  %46 = add nsw i32 %45, 1
  store i32 %46, ptr %44, align 4, !tbaa !13
  br label %47

47:                                               ; preds = %40, %34
  br label %48

48:                                               ; preds = %47, %21
  br label %49

49:                                               ; preds = %48
  %50 = load i32, ptr %7, align 4, !tbaa !13
  %51 = add nsw i32 %50, 1
  store i32 %51, ptr %7, align 4, !tbaa !13
  br label %11, !llvm.loop !127

52:                                               ; preds = %11
  %53 = call i32 (ptr, ...) @printf(ptr noundef @.str.6)
  store i32 255, ptr %7, align 4, !tbaa !13
  br label %54

54:                                               ; preds = %71, %52
  %55 = load i32, ptr %7, align 4, !tbaa !13
  %56 = icmp sgt i32 %55, 0
  br i1 %56, label %57, label %74

57:                                               ; preds = %54
  %58 = load i32, ptr %7, align 4, !tbaa !13
  %59 = sext i32 %58 to i64
  %60 = getelementptr inbounds [256 x i32], ptr %10, i64 0, i64 %59
  %61 = load i32, ptr %60, align 4, !tbaa !13
  %62 = icmp ne i32 %61, 0
  br i1 %62, label %63, label %70

63:                                               ; preds = %57
  %64 = load i32, ptr %7, align 4, !tbaa !13
  %65 = load i32, ptr %7, align 4, !tbaa !13
  %66 = sext i32 %65 to i64
  %67 = getelementptr inbounds [256 x i32], ptr %10, i64 0, i64 %66
  %68 = load i32, ptr %67, align 4, !tbaa !13
  %69 = call i32 (ptr, ...) @printf(ptr noundef @.str.7, i32 noundef %64, i32 noundef %68)
  br label %70

70:                                               ; preds = %63, %57
  br label %71

71:                                               ; preds = %70
  %72 = load i32, ptr %7, align 4, !tbaa !13
  %73 = add nsw i32 %72, -1
  store i32 %73, ptr %7, align 4, !tbaa !13
  br label %54, !llvm.loop !128

74:                                               ; preds = %54
  store i32 0, ptr %7, align 4, !tbaa !13
  br label %75

75:                                               ; preds = %92, %74
  %76 = load i32, ptr %7, align 4, !tbaa !13
  %77 = icmp slt i32 %76, 256
  br i1 %77, label %78, label %95

78:                                               ; preds = %75
  %79 = load i32, ptr %7, align 4, !tbaa !13
  %80 = sext i32 %79 to i64
  %81 = getelementptr inbounds [256 x i32], ptr %9, i64 0, i64 %80
  %82 = load i32, ptr %81, align 4, !tbaa !13
  %83 = icmp ne i32 %82, 0
  br i1 %83, label %84, label %91

84:                                               ; preds = %78
  %85 = load i32, ptr %7, align 4, !tbaa !13
  %86 = load i32, ptr %7, align 4, !tbaa !13
  %87 = sext i32 %86 to i64
  %88 = getelementptr inbounds [256 x i32], ptr %9, i64 0, i64 %87
  %89 = load i32, ptr %88, align 4, !tbaa !13
  %90 = call i32 (ptr, ...) @printf(ptr noundef @.str.8, i32 noundef %85, i32 noundef %89)
  br label %91

91:                                               ; preds = %84, %78
  br label %92

92:                                               ; preds = %91
  %93 = load i32, ptr %7, align 4, !tbaa !13
  %94 = add nsw i32 %93, 1
  store i32 %94, ptr %7, align 4, !tbaa !13
  br label %75, !llvm.loop !129

95:                                               ; preds = %75
  %96 = call i32 (ptr, ...) @printf(ptr noundef @.str.9)
  call void @llvm.lifetime.end.p0(i64 1024, ptr %10) #11
  call void @llvm.lifetime.end.p0(i64 1024, ptr %9) #11
  call void @llvm.lifetime.end.p0(i64 4, ptr %8) #11
  call void @llvm.lifetime.end.p0(i64 4, ptr %7) #11
  ret void
}