; Function Attrs: nofree nounwind uwtable
define void @Gia_ManSifPrintTimes(ptr noundef readonly captures(none) %0, ptr noundef readonly captures(none) %1, i32 noundef %2) local_unnamed_addr #8 {
  %4 = alloca [256 x i32], align 16
  %5 = alloca [256 x i32], align 16
  call void @llvm.lifetime.start.p0(i64 1024, ptr nonnull %4) #24
  call void @llvm.memset.p0.i64(ptr noundef nonnull align 16 dereferenceable(1024) %4, i8 0, i64 1024, i1 false)
  call void @llvm.lifetime.start.p0(i64 1024, ptr nonnull %5) #24
  call void @llvm.memset.p0.i64(ptr noundef nonnull align 16 dereferenceable(1024) %5, i8 0, i64 1024, i1 false)
  %6 = getelementptr i8, ptr %0, i64 24
  %.val28 = load i32, ptr %6, align 8, !tbaa !44
  %7 = icmp sgt i32 %.val28, 1
  br i1 %7, label %.lr.ph, label %._crit_edge

.lr.ph:                                           ; preds = %3
  %8 = getelementptr i8, ptr %0, i64 264
  %.val29 = load ptr, ptr %8, align 8, !tbaa !38
  %9 = getelementptr i8, ptr %.val29, i64 8
  %.val29.val = load ptr, ptr %9, align 8, !tbaa !39
  %10 = getelementptr i8, ptr %1, i64 8
  %11 = mul nsw i32 %2, 65535
  %wide.trip.count = zext nneg i32 %.val28 to i64
  br label %12

12:                                               ; preds = %.lr.ph, %32
  %indvars.iv = phi i64 [ 1, %.lr.ph ], [ %indvars.iv.next, %32 ]
  %13 = getelementptr inbounds nuw i32, ptr %.val29.val, i64 %indvars.iv
  %14 = load i32, ptr %13, align 4, !tbaa !29
  %.not30 = icmp eq i32 %14, 0
  br i1 %.not30, label %32, label %.sink.split

.sink.split:                                      ; preds = %12
  %.val = load ptr, ptr %10, align 8, !tbaa !39
  %15 = getelementptr inbounds nuw i32, ptr %.val, i64 %indvars.iv
  %16 = load i32, ptr %15, align 4, !tbaa !29
  %17 = add nsw i32 %16, %11
  %18 = sdiv i32 %17, %2
  %19 = srem i32 %17, %2
  %20 = icmp ne i32 %19, 0
  %21 = zext i1 %20 to i32
  %22 = add i32 %18, -65536
  %23 = add i32 %22, %21
  %24 = tail call range(i32 -2147483648, 536870913) i32 @llvm.smin.i32(i32 %23, i32 255)
  %25 = tail call noundef i32 @llvm.smax.i32(i32 %24, i32 -255)
  %26 = icmp sgt i32 %23, -1
  %27 = sub nsw i32 0, %25
  %.sink = select i1 %26, i32 %25, i32 %27
  %.sink44 = select i1 %26, ptr %4, ptr %5
  %28 = zext nneg i32 %.sink to i64
  %29 = getelementptr inbounds nuw [256 x i32], ptr %.sink44, i64 0, i64 %28
  %30 = load i32, ptr %29, align 4, !tbaa !29
  %31 = add nsw i32 %30, 1
  store i32 %31, ptr %29, align 4, !tbaa !29
  br label %32

32:                                               ; preds = %.sink.split, %12
  %indvars.iv.next = add nuw nsw i64 %indvars.iv, 1
  %exitcond.not = icmp eq i64 %indvars.iv.next, %wide.trip.count
  br i1 %exitcond.not, label %._crit_edge, label %12, !llvm.loop !127

._crit_edge:                                      ; preds = %32, %3
  %33 = tail call i32 (ptr, ...) @printf(ptr noundef nonnull dereferenceable(1) @.str.6)
  br label %34

34:                                               ; preds = %._crit_edge, %40
  %indvars.iv35 = phi i64 [ 255, %._crit_edge ], [ %indvars.iv.next36, %40 ]
  %35 = getelementptr inbounds nuw [256 x i32], ptr %5, i64 0, i64 %indvars.iv35
  %36 = load i32, ptr %35, align 4, !tbaa !29
  %.not26 = icmp eq i32 %36, 0
  br i1 %.not26, label %40, label %37

37:                                               ; preds = %34
  %38 = trunc nuw nsw i64 %indvars.iv35 to i32
  %39 = tail call i32 (ptr, ...) @printf(ptr noundef nonnull dereferenceable(1) @.str.7, i32 noundef %38, i32 noundef %36)
  br label %40

40:                                               ; preds = %34, %37
  %indvars.iv.next36 = add nsw i64 %indvars.iv35, -1
  %41 = icmp ugt i64 %indvars.iv35, 1
  br i1 %41, label %34, label %.preheader, !llvm.loop !128

.preheader:                                       ; preds = %40, %47
  %indvars.iv38 = phi i64 [ %indvars.iv.next39, %47 ], [ 0, %40 ]
  %42 = getelementptr inbounds nuw [256 x i32], ptr %4, i64 0, i64 %indvars.iv38
  %43 = load i32, ptr %42, align 4, !tbaa !29
  %.not = icmp eq i32 %43, 0
  br i1 %.not, label %47, label %44

44:                                               ; preds = %.preheader
  %45 = trunc nuw nsw i64 %indvars.iv38 to i32
  %46 = tail call i32 (ptr, ...) @printf(ptr noundef nonnull dereferenceable(1) @.str.8, i32 noundef %45, i32 noundef %43)
  br label %47

47:                                               ; preds = %.preheader, %44
  %indvars.iv.next39 = add nuw nsw i64 %indvars.iv38, 1
  %exitcond41.not = icmp eq i64 %indvars.iv.next39, 256
  br i1 %exitcond41.not, label %48, label %.preheader, !llvm.loop !129

48:                                               ; preds = %47
  %putchar = tail call i32 @putchar(i32 10)
  call void @llvm.lifetime.end.p0(i64 1024, ptr nonnull %5) #24
  call void @llvm.lifetime.end.p0(i64 1024, ptr nonnull %4) #24
  ret void
}